; Function Attrs: mustprogress noinline uwtable
define dso_local void @_ZN4Luau7CodeGen3X6418AssemblyBuilderX643logEPKcNS1_10OperandX64ES5_(ptr noundef nonnull align 8 dereferenceable(252) %0, ptr noundef %1, i64 %2, i64 %3) local_unnamed_addr #4 align 2 personality ptr @__gxx_personality_v0 {
  tail call void (ptr, ptr, ...) @_ZN4Luau7CodeGen3X6418AssemblyBuilderX649logAppendEPKcz(ptr noundef nonnull align 8 dereferenceable(252) %0, ptr noundef nonnull @.str.87, ptr noundef %1)
  tail call void @_ZN4Luau7CodeGen3X6418AssemblyBuilderX643logENS1_10OperandX64E(ptr noundef nonnull align 8 dereferenceable(252) %0, i64 %2)
  %5 = getelementptr inbounds nuw i8, ptr %0, i64 48
  %6 = getelementptr inbounds nuw i8, ptr %0, i64 56
  %7 = load i64, ptr %6, align 8, !tbaa !10
  %8 = icmp eq i64 %7, 4611686018427387903
  br i1 %8, label %9, label %_ZNSt7__cxx1112basic_stringIcSt11char_traitsIcESaIcEE6appendEPKc.exit

9:                                                ; preds = %4
  tail call void @_ZSt20__throw_length_errorPKc(ptr noundef nonnull @.str.290) #21
  unreachable

_ZNSt7__cxx1112basic_stringIcSt11char_traitsIcESaIcEE6appendEPKc.exit: ; preds = %4
  %10 = tail call noundef nonnull align 8 dereferenceable(32) ptr @_ZNSt7__cxx1112basic_stringIcSt11char_traitsIcESaIcEE9_M_appendEPKcm(ptr noundef nonnull align 8 dereferenceable(32) %5, ptr noundef nonnull @.str.89, i64 noundef 1)
  tail call void @_ZN4Luau7CodeGen3X6418AssemblyBuilderX643logENS1_10OperandX64E(ptr noundef nonnull align 8 dereferenceable(252) %0, i64 %3)
  %11 = load i64, ptr %6, align 8, !tbaa !10
  %12 = icmp eq i64 %11, 4611686018427387903
  br i1 %12, label %13, label %_ZNSt7__cxx1112basic_stringIcSt11char_traitsIcESaIcEE6appendEPKc.exit5

13:                                               ; preds = %_ZNSt7__cxx1112basic_stringIcSt11char_traitsIcESaIcEE6appendEPKc.exit
  tail call void @_ZSt20__throw_length_errorPKc(ptr noundef nonnull @.str.290) #21
  unreachable

_ZNSt7__cxx1112basic_stringIcSt11char_traitsIcESaIcEE6appendEPKc.exit5: ; preds = %_ZNSt7__cxx1112basic_stringIcSt11char_traitsIcESaIcEE6appendEPKc.exit
  %14 = tail call noundef nonnull align 8 dereferenceable(32) ptr @_ZNSt7__cxx1112basic_stringIcSt11char_traitsIcESaIcEE9_M_appendEPKcm(ptr noundef nonnull align 8 dereferenceable(32) %5, ptr noundef nonnull @.str.88, i64 noundef 1)
  ret void
}